target datalayout = "e-m:e-p270:32:32-p271:32:32-p272:64:64-i64:64-i128:128-f80:128-n8:16:32:64-S128"
target triple = "x86_64-pc-linux-gnu"

%struct.lv_ll_t = type { i32, ptr, ptr }
%struct._lv_group_t = type { %struct.lv_ll_t, ptr, ptr, ptr, ptr, i8 }
%struct._lv_obj_t = type { ptr, ptr, ptr, ptr, ptr, %struct.lv_area_t, i32, i16, i16 }
%struct.lv_area_t = type { i32, i32, i32, i32 }
%struct._lv_obj_spec_attr_t = type { ptr, ptr, %struct.lv_event_list_t, %struct.lv_point_t, i32, i32, i16, i16 }
%struct.lv_event_list_t = type { %struct._lv_array_t, i8 }
%struct._lv_array_t = type { ptr, i32, i32, i32, i8 }
%struct.lv_point_t = type { i32, i32 }

; Function Attrs: nounwind uwtable
define void @lv_group_focus_prev(ptr noundef %0) #0 {
  %2 = alloca ptr, align 8
  %3 = alloca i8, align 1
  store ptr %0, ptr %2, align 8, !tbaa !3
  br label %4

4:                                                ; preds = %1
  %5 = load ptr, ptr %2, align 8, !tbaa !3
  %6 = icmp ne ptr %5, null
  br i1 %6, label %11, label %7

7:                                                ; preds = %4
  br label %8

8:                                                ; preds = %7
  br label %9

9:                                                ; preds = %8
  br label %10

10:                                               ; preds = %9, %10
  br label %10

11:                                               ; preds = %4
  br label %12

12:                                               ; preds = %11
  call void @llvm.lifetime.start.p0(i64 1, ptr %3) #3
  %13 = load ptr, ptr %2, align 8, !tbaa !3
  %14 = call zeroext i1 @focus_next_core(ptr noundef %13, ptr noundef @lv_ll_get_tail, ptr noundef @lv_ll_get_prev)
  %15 = zext i1 %14 to i8
  store i8 %15, ptr %3, align 1, !tbaa !44
  %16 = load ptr, ptr %2, align 8, !tbaa !3
  %17 = getelementptr inbounds nuw %struct._lv_group_t, ptr %16, i32 0, i32 3
  %18 = load ptr, ptr %17, align 8, !tbaa !12
  %19 = icmp ne ptr %18, null
  br i1 %19, label %20, label %29

20:                                               ; preds = %12
  %21 = load i8, ptr %3, align 1, !tbaa !44, !range !45, !noundef !46
  %22 = trunc i8 %21 to i1
  br i1 %22, label %28, label %23

23:                                               ; preds = %20
  %24 = load ptr, ptr %2, align 8, !tbaa !3
  %25 = getelementptr inbounds nuw %struct._lv_group_t, ptr %24, i32 0, i32 3
  %26 = load ptr, ptr %25, align 8, !tbaa !12
  %27 = load ptr, ptr %2, align 8, !tbaa !3
  call void %26(ptr noundef %27, i1 noundef zeroext false)
  br label %28

28:                                               ; preds = %23, %20
  br label %29

29:                                               ; preds = %28, %12
  call void @llvm.lifetime.end.p0(i64 1, ptr %3) #3
  ret void
}

; Function Attrs: nounwind uwtable
define void @lv_group_focus_next(ptr noundef %0) #0 {
  %2 = alloca ptr, align 8
  %3 = alloca i8, align 1
  store ptr %0, ptr %2, align 8, !tbaa !3
  br label %4

4:                                                ; preds = %1
  %5 = load ptr, ptr %2, align 8, !tbaa !3
  %6 = icmp ne ptr %5, null
  br i1 %6, label %11, label %7

7:                                                ; preds = %4
  br label %8

8:                                                ; preds = %7
  br label %9

9:                                                ; preds = %8
  br label %10

10:                                               ; preds = %9, %10
  br label %10

11:                                               ; preds = %4
  br label %12

12:                                               ; preds = %11
  call void @llvm.lifetime.start.p0(i64 1, ptr %3) #3
  %13 = load ptr, ptr %2, align 8, !tbaa !3
  %14 = call zeroext i1 @focus_next_core(ptr noundef %13, ptr noundef @lv_ll_get_head, ptr noundef @lv_ll_get_next)
  %15 = zext i1 %14 to i8
  store i8 %15, ptr %3, align 1, !tbaa !44
  %16 = load ptr, ptr %2, align 8, !tbaa !3
  %17 = getelementptr inbounds nuw %struct._lv_group_t, ptr %16, i32 0, i32 3
  %18 = load ptr, ptr %17, align 8, !tbaa !12
  %19 = icmp ne ptr %18, null
  br i1 %19, label %20, label %29

20:                                               ; preds = %12
  %21 = load i8, ptr %3, align 1, !tbaa !44, !range !45, !noundef !46
  %22 = trunc i8 %21 to i1
  br i1 %22, label %28, label %23

23:                                               ; preds = %20
  %24 = load ptr, ptr %2, align 8, !tbaa !3
  %25 = getelementptr inbounds nuw %struct._lv_group_t, ptr %24, i32 0, i32 3
  %26 = load ptr, ptr %25, align 8, !tbaa !12
  %27 = load ptr, ptr %2, align 8, !tbaa !3
  call void %26(ptr noundef %27, i1 noundef zeroext true)
  br label %28

28:                                               ; preds = %23, %20
  br label %29

29:                                               ; preds = %28, %12
  call void @llvm.lifetime.end.p0(i64 1, ptr %3) #3
  ret void
}

; Function Attrs: nounwind uwtable
define internal void @lv_group_refocus(ptr noundef %0) #0 {
  %2 = alloca ptr, align 8
  %3 = alloca i8, align 1
  store ptr %0, ptr %2, align 8, !tbaa !3
  call void @llvm.lifetime.start.p0(i64 1, ptr %3) #3
  %4 = load ptr, ptr %2, align 8, !tbaa !3
  %5 = getelementptr inbounds nuw %struct._lv_group_t, ptr %4, i32 0, i32 5
  %6 = load i8, ptr %5, align 8
  %7 = lshr i8 %6, 3
  %8 = and i8 %7, 1
  store i8 %8, ptr %3, align 1, !tbaa !40
  %9 = load ptr, ptr %2, align 8, !tbaa !3
  %10 = getelementptr inbounds nuw %struct._lv_group_t, ptr %9, i32 0, i32 5
  %11 = load i8, ptr %10, align 8
  %12 = and i8 %11, -9
  %13 = or i8 %12, 8
  store i8 %13, ptr %10, align 8
  %14 = load ptr, ptr %2, align 8, !tbaa !3
  %15 = getelementptr inbounds nuw %struct._lv_group_t, ptr %14, i32 0, i32 5
  %16 = load i8, ptr %15, align 8
  %17 = lshr i8 %16, 2
  %18 = and i8 %17, 1
  %19 = zext i8 %18 to i32
  %20 = icmp eq i32 %19, 0
  br i1 %20, label %21, label %23

21:                                               ; preds = %1
  %22 = load ptr, ptr %2, align 8, !tbaa !3
  call void @lv_group_focus_next(ptr noundef %22)
  br label %34

23:                                               ; preds = %1
  %24 = load ptr, ptr %2, align 8, !tbaa !3
  %25 = getelementptr inbounds nuw %struct._lv_group_t, ptr %24, i32 0, i32 5
  %26 = load i8, ptr %25, align 8
  %27 = lshr i8 %26, 2
  %28 = and i8 %27, 1
  %29 = zext i8 %28 to i32
  %30 = icmp eq i32 %29, 1
  br i1 %30, label %31, label %33

31:                                               ; preds = %23
  %32 = load ptr, ptr %2, align 8, !tbaa !3
  call void @lv_group_focus_prev(ptr noundef %32)
  br label %33

33:                                               ; preds = %31, %23
  br label %34

34:                                               ; preds = %33, %21
  %35 = load i8, ptr %3, align 1, !tbaa !40
  %36 = load ptr, ptr %2, align 8, !tbaa !3
  %37 = getelementptr inbounds nuw %struct._lv_group_t, ptr %36, i32 0, i32 5
  %38 = load i8, ptr %37, align 8
  %39 = and i8 %35, 1
  %40 = shl i8 %39, 3
  %41 = and i8 %38, -9
  %42 = or i8 %41, %40
  store i8 %42, ptr %37, align 8
  call void @llvm.lifetime.end.p0(i64 1, ptr %3) #3
  ret void
}

; Function Attrs: nounwind uwtable
define internal ptr @get_indev(ptr noundef %0) #0 {
  %2 = alloca ptr, align 8
  %3 = alloca ptr, align 8
  %4 = alloca ptr, align 8
  %5 = alloca ptr, align 8
  %6 = alloca i32, align 4
  %7 = alloca i32, align 4
  store ptr %0, ptr %3, align 8, !tbaa !3
  call void @llvm.lifetime.start.p0(i64 8, ptr %4) #3
  store ptr null, ptr %4, align 8, !tbaa !3
  call void @llvm.lifetime.start.p0(i64 8, ptr %5) #3
  %8 = call ptr @lv_indev_get_next(ptr noundef null)
  store ptr %8, ptr %5, align 8, !tbaa !3
  br label %9

9:                                                ; preds = %31, %1
  %10 = load ptr, ptr %5, align 8, !tbaa !3
  %11 = icmp ne ptr %10, null
  br i1 %11, label %12, label %32

12:                                               ; preds = %9
  call void @llvm.lifetime.start.p0(i64 4, ptr %6) #3
  %13 = load ptr, ptr %5, align 8, !tbaa !3
  %14 = call i32 @lv_indev_get_type(ptr noundef %13)
  store i32 %14, ptr %6, align 4, !tbaa !27
  %15 = load i32, ptr %6, align 4, !tbaa !27
  %16 = icmp eq i32 %15, 1
  br i1 %16, label %17, label %19

17:                                               ; preds = %12
  %18 = load ptr, ptr %5, align 8, !tbaa !3
  store ptr %18, ptr %2, align 8
  store i32 1, ptr %7, align 4
  br label %29

19:                                               ; preds = %12
  %20 = load ptr, ptr %5, align 8, !tbaa !3
  %21 = call ptr @lv_indev_get_group(ptr noundef %20)
  %22 = load ptr, ptr %3, align 8, !tbaa !3
  %23 = icmp eq ptr %21, %22
  br i1 %23, label %24, label %26

24:                                               ; preds = %19
  %25 = load ptr, ptr %5, align 8, !tbaa !3
  store ptr %25, ptr %4, align 8, !tbaa !3
  br label %26

26:                                               ; preds = %24, %19
  %27 = load ptr, ptr %5, align 8, !tbaa !3
  %28 = call ptr @lv_indev_get_next(ptr noundef %27)
  store ptr %28, ptr %5, align 8, !tbaa !3
  store i32 0, ptr %7, align 4
  br label %29

29:                                               ; preds = %26, %17
  call void @llvm.lifetime.end.p0(i64 4, ptr %6) #3
  %30 = load i32, ptr %7, align 4
  switch i32 %30, label %34 [
    i32 0, label %31
  ]

31:                                               ; preds = %29
  br label %9, !llvm.loop !28

32:                                               ; preds = %9
  %33 = load ptr, ptr %4, align 8, !tbaa !3
  store ptr %33, ptr %2, align 8
  store i32 1, ptr %7, align 4
  br label %34

34:                                               ; preds = %32, %29
  call void @llvm.lifetime.end.p0(i64 8, ptr %5) #3
  call void @llvm.lifetime.end.p0(i64 8, ptr %4) #3
  %35 = load ptr, ptr %2, align 8
  ret ptr %35
}

; Function Attrs: nounwind uwtable
define void @lv_group_remove_obj(ptr noundef %0) #0 {
  %2 = alloca ptr, align 8
  %3 = alloca ptr, align 8
  %4 = alloca i32, align 4
  %5 = alloca ptr, align 8
  store ptr %0, ptr %2, align 8, !tbaa !3
  call void @llvm.lifetime.start.p0(i64 8, ptr %3) #3
  %6 = load ptr, ptr %2, align 8, !tbaa !3
  %7 = call ptr @lv_obj_get_group(ptr noundef %6)
  store ptr %7, ptr %3, align 8, !tbaa !3
  %8 = load ptr, ptr %3, align 8, !tbaa !3
  %9 = icmp eq ptr %8, null
  br i1 %9, label %10, label %11

10:                                               ; preds = %1
  store i32 1, ptr %4, align 4
  br label %117

11:                                               ; preds = %1
  br label %12

12:                                               ; preds = %11
  br label %13

13:                                               ; preds = %12
  br label %14

14:                                               ; preds = %13
  %15 = load ptr, ptr %3, align 8, !tbaa !3
  %16 = getelementptr inbounds nuw %struct._lv_group_t, ptr %15, i32 0, i32 1
  %17 = load ptr, ptr %16, align 8, !tbaa !7
  %18 = icmp ne ptr %17, null
  br i1 %18, label %19, label %65

19:                                               ; preds = %14
  %20 = load ptr, ptr %3, align 8, !tbaa !3
  %21 = getelementptr inbounds nuw %struct._lv_group_t, ptr %20, i32 0, i32 1
  %22 = load ptr, ptr %21, align 8, !tbaa !7
  %23 = load ptr, ptr %22, align 8, !tbaa !3
  %24 = load ptr, ptr %2, align 8, !tbaa !3
  %25 = icmp eq ptr %23, %24
  br i1 %25, label %26, label %65

26:                                               ; preds = %19
  %27 = load ptr, ptr %3, align 8, !tbaa !3
  %28 = getelementptr inbounds nuw %struct._lv_group_t, ptr %27, i32 0, i32 5
  %29 = load i8, ptr %28, align 8
  %30 = and i8 %29, 1
  %31 = icmp ne i8 %30, 0
  br i1 %31, label %32, label %38

32:                                               ; preds = %26
  %33 = load ptr, ptr %3, align 8, !tbaa !3
  %34 = getelementptr inbounds nuw %struct._lv_group_t, ptr %33, i32 0, i32 5
  %35 = load i8, ptr %34, align 8
  %36 = and i8 %35, -2
  %37 = or i8 %36, 0
  store i8 %37, ptr %34, align 8
  br label %38

38:                                               ; preds = %32, %26
  %39 = load ptr, ptr %3, align 8, !tbaa !3
  %40 = getelementptr inbounds nuw %struct._lv_group_t, ptr %39, i32 0, i32 0
  %41 = call ptr @lv_ll_get_head(ptr noundef %40)
  %42 = load ptr, ptr %3, align 8, !tbaa !3
  %43 = getelementptr inbounds nuw %struct._lv_group_t, ptr %42, i32 0, i32 1
  %44 = load ptr, ptr %43, align 8, !tbaa !7
  %45 = icmp eq ptr %41, %44
  br i1 %45, label %46, label %62

46:                                               ; preds = %38
  %47 = load ptr, ptr %3, align 8, !tbaa !3
  %48 = getelementptr inbounds nuw %struct._lv_group_t, ptr %47, i32 0, i32 0
  %49 = call ptr @lv_ll_get_tail(ptr noundef %48)
  %50 = load ptr, ptr %3, align 8, !tbaa !3
  %51 = getelementptr inbounds nuw %struct._lv_group_t, ptr %50, i32 0, i32 1
  %52 = load ptr, ptr %51, align 8, !tbaa !7
  %53 = icmp eq ptr %49, %52
  br i1 %53, label %54, label %62

54:                                               ; preds = %46
  %55 = load ptr, ptr %3, align 8, !tbaa !3
  %56 = getelementptr inbounds nuw %struct._lv_group_t, ptr %55, i32 0, i32 1
  %57 = load ptr, ptr %56, align 8, !tbaa !7
  %58 = load ptr, ptr %57, align 8, !tbaa !3
  %59 = load ptr, ptr %3, align 8, !tbaa !3
  %60 = call ptr @get_indev(ptr noundef %59)
  %61 = call i32 @lv_obj_send_event(ptr noundef %58, i32 noundef 20, ptr noundef %60)
  br label %64

62:                                               ; preds = %46, %38
  %63 = load ptr, ptr %3, align 8, !tbaa !3
  call void @lv_group_refocus(ptr noundef %63)
  br label %64

64:                                               ; preds = %62, %54
  br label %65

65:                                               ; preds = %64, %19, %14
  %66 = load ptr, ptr %3, align 8, !tbaa !3
  %67 = getelementptr inbounds nuw %struct._lv_group_t, ptr %66, i32 0, i32 1
  %68 = load ptr, ptr %67, align 8, !tbaa !7
  %69 = icmp ne ptr %68, null
  br i1 %69, label %70, label %80

70:                                               ; preds = %65
  %71 = load ptr, ptr %3, align 8, !tbaa !3
  %72 = getelementptr inbounds nuw %struct._lv_group_t, ptr %71, i32 0, i32 1
  %73 = load ptr, ptr %72, align 8, !tbaa !7
  %74 = load ptr, ptr %73, align 8, !tbaa !3
  %75 = load ptr, ptr %2, align 8, !tbaa !3
  %76 = icmp eq ptr %74, %75
  br i1 %76, label %77, label %80

77:                                               ; preds = %70
  %78 = load ptr, ptr %3, align 8, !tbaa !3
  %79 = getelementptr inbounds nuw %struct._lv_group_t, ptr %78, i32 0, i32 1
  store ptr null, ptr %79, align 8, !tbaa !7
  br label %80

80:                                               ; preds = %77, %70, %65
  call void @llvm.lifetime.start.p0(i64 8, ptr %5) #3
  %81 = load ptr, ptr %3, align 8, !tbaa !3
  %82 = getelementptr inbounds nuw %struct._lv_group_t, ptr %81, i32 0, i32 0
  %83 = call ptr @lv_ll_get_head(ptr noundef %82)
  store ptr %83, ptr %5, align 8, !tbaa !3
  br label %84

84:                                               ; preds = %108, %80
  %85 = load ptr, ptr %5, align 8, !tbaa !3
  %86 = icmp ne ptr %85, null
  br i1 %86, label %87, label %113

87:                                               ; preds = %84
  %88 = load ptr, ptr %5, align 8, !tbaa !3
  %89 = load ptr, ptr %88, align 8, !tbaa !3
  %90 = load ptr, ptr %2, align 8, !tbaa !3
  %91 = icmp eq ptr %89, %90
  br i1 %91, label %92, label %107

92:                                               ; preds = %87
  %93 = load ptr, ptr %3, align 8, !tbaa !3
  %94 = getelementptr inbounds nuw %struct._lv_group_t, ptr %93, i32 0, i32 0
  %95 = load ptr, ptr %5, align 8, !tbaa !3
  call void @lv_ll_remove(ptr noundef %94, ptr noundef %95)
  %96 = load ptr, ptr %5, align 8, !tbaa !3
  call void @lv_free(ptr noundef %96)
  %97 = load ptr, ptr %2, align 8, !tbaa !3
  %98 = getelementptr inbounds nuw %struct._lv_obj_t, ptr %97, i32 0, i32 2
  %99 = load ptr, ptr %98, align 8, !tbaa !14
  %100 = icmp ne ptr %99, null
  br i1 %100, label %101, label %106

101:                                              ; preds = %92
  %102 = load ptr, ptr %2, align 8, !tbaa !3
  %103 = getelementptr inbounds nuw %struct._lv_obj_t, ptr %102, i32 0, i32 2
  %104 = load ptr, ptr %103, align 8, !tbaa !14
  %105 = getelementptr inbounds nuw %struct._lv_obj_spec_attr_t, ptr %104, i32 0, i32 1
  store ptr null, ptr %105, align 8, !tbaa !18
  br label %106

106:                                              ; preds = %101, %92
  br label %113

107:                                              ; preds = %87
  br label %108

108:                                              ; preds = %107
  %109 = load ptr, ptr %3, align 8, !tbaa !3
  %110 = getelementptr inbounds nuw %struct._lv_group_t, ptr %109, i32 0, i32 0
  %111 = load ptr, ptr %5, align 8, !tbaa !3
  %112 = call ptr @lv_ll_get_next(ptr noundef %110, ptr noundef %111)
  store ptr %112, ptr %5, align 8, !tbaa !3
  br label %84, !llvm.loop !39

113:                                              ; preds = %106, %84
  br label %114

114:                                              ; preds = %113
  br label %115

115:                                              ; preds = %114
  br label %116

116:                                              ; preds = %115
  call void @llvm.lifetime.end.p0(i64 8, ptr %5) #3
  store i32 0, ptr %4, align 4
  br label %117

117:                                              ; preds = %116, %10
  call void @llvm.lifetime.end.p0(i64 8, ptr %3) #3
  %118 = load i32, ptr %4, align 4
  switch i32 %118, label %120 [
    i32 0, label %119
    i32 1, label %119
  ]

119:                                              ; preds = %117, %117
  ret void

120:                                              ; preds = %117
  unreachable
}