; Function Attrs: nounwind uwtable
define void @lv_group_remove_obj(ptr noundef %0) local_unnamed_addr #0 {
  %2 = tail call ptr @lv_obj_get_group(ptr noundef %0) #10
  %3 = icmp eq ptr %2, null
  br i1 %3, label %.loopexit, label %4

4:                                                ; preds = %1
  %5 = getelementptr inbounds nuw i8, ptr %2, i64 24
  %6 = load ptr, ptr %5, align 8, !tbaa !3
  %.not = icmp eq ptr %6, null
  br i1 %.not, label %.thread, label %7

7:                                                ; preds = %4
  %8 = load ptr, ptr %6, align 8, !tbaa !11
  %9 = icmp eq ptr %8, %0
  br i1 %9, label %10, label %.thread40

10:                                               ; preds = %7
  %11 = getelementptr inbounds nuw i8, ptr %2, i64 56
  %12 = load i8, ptr %11, align 8
  %13 = and i8 %12, 1
  %.not35 = icmp eq i8 %13, 0
  br i1 %.not35, label %16, label %14

14:                                               ; preds = %10
  %15 = and i8 %12, -2
  store i8 %15, ptr %11, align 8
  br label %16

16:                                               ; preds = %14, %10
  %17 = tail call ptr @lv_ll_get_head(ptr noundef nonnull %2) #10
  %18 = load ptr, ptr %5, align 8, !tbaa !3
  %19 = icmp eq ptr %17, %18
  br i1 %19, label %20, label %33

20:                                               ; preds = %16
  %21 = tail call ptr @lv_ll_get_tail(ptr noundef nonnull %2) #10
  %22 = load ptr, ptr %5, align 8, !tbaa !3
  %23 = icmp eq ptr %21, %22
  br i1 %23, label %24, label %33

24:                                               ; preds = %20
  %25 = load ptr, ptr %22, align 8, !tbaa !11
  %26 = tail call ptr @lv_indev_get_next(ptr noundef null) #10
  %.not20.i = icmp eq ptr %26, null
  br i1 %.not20.i, label %get_indev.exit, label %.lr.ph.i

.lr.ph.i:                                         ; preds = %24, %28
  %.01122.i = phi ptr [ %31, %28 ], [ %26, %24 ]
  %.01321.i = phi ptr [ %spec.select.i, %28 ], [ null, %24 ]
  %27 = tail call i32 @lv_indev_get_type(ptr noundef nonnull %.01122.i) #10
  %.not16.i = icmp eq i32 %27, 1
  br i1 %.not16.i, label %get_indev.exit, label %28

28:                                               ; preds = %.lr.ph.i
  %29 = tail call ptr @lv_indev_get_group(ptr noundef nonnull %.01122.i) #10
  %30 = icmp eq ptr %29, %2
  %spec.select.i = select i1 %30, ptr %.01122.i, ptr %.01321.i
  %31 = tail call ptr @lv_indev_get_next(ptr noundef nonnull %.01122.i) #10
  %.not.i = icmp eq ptr %31, null
  br i1 %.not.i, label %get_indev.exit, label %.lr.ph.i, !llvm.loop !12

get_indev.exit:                                   ; preds = %.lr.ph.i, %28, %24
  %.2.i = phi ptr [ null, %24 ], [ %spec.select.i, %28 ], [ %.01122.i, %.lr.ph.i ]
  %32 = tail call i32 @lv_obj_send_event(ptr noundef %25, i32 noundef 20, ptr noundef %.2.i) #10
  br label %51

33:                                               ; preds = %20, %16
  %34 = load i8, ptr %11, align 8
  %35 = or i8 %34, 8
  store i8 %35, ptr %11, align 8
  %36 = and i8 %34, 4
  %37 = icmp eq i8 %36, 0
  %38 = getelementptr inbounds nuw i8, ptr %2, i64 40
  br i1 %37, label %39, label %43

39:                                               ; preds = %33
  %40 = tail call fastcc zeroext i1 @focus_next_core(ptr noundef nonnull %2, ptr noundef nonnull @lv_ll_get_head, ptr noundef nonnull @lv_ll_get_next)
  %41 = load ptr, ptr %38, align 8, !tbaa !36
  %.not6.i.i = icmp eq ptr %41, null
  %brmerge.i.i = or i1 %40, %.not6.i.i
  br i1 %brmerge.i.i, label %lv_group_refocus.exit, label %42

42:                                               ; preds = %39
  tail call void %41(ptr noundef nonnull %2, i1 noundef zeroext true) #10
  br label %lv_group_refocus.exit

43:                                               ; preds = %33
  %44 = tail call fastcc zeroext i1 @focus_next_core(ptr noundef nonnull %2, ptr noundef nonnull @lv_ll_get_tail, ptr noundef nonnull @lv_ll_get_prev)
  %45 = load ptr, ptr %38, align 8, !tbaa !36
  %.not6.i7.i = icmp eq ptr %45, null
  %brmerge.i8.i = or i1 %44, %.not6.i7.i
  br i1 %brmerge.i8.i, label %lv_group_refocus.exit, label %46

46:                                               ; preds = %43
  tail call void %45(ptr noundef nonnull %2, i1 noundef zeroext false) #10
  br label %lv_group_refocus.exit

lv_group_refocus.exit:                            ; preds = %39, %42, %43, %46
  %47 = and i8 %34, 8
  %48 = load i8, ptr %11, align 8
  %49 = and i8 %48, -9
  %50 = or disjoint i8 %49, %47
  store i8 %50, ptr %11, align 8
  br label %51

51:                                               ; preds = %get_indev.exit, %lv_group_refocus.exit
  %.pr = load ptr, ptr %5, align 8, !tbaa !3
  %.not36 = icmp eq ptr %.pr, null
  br i1 %.not36, label %.thread, label %..thread40_crit_edge

..thread40_crit_edge:                             ; preds = %51
  %.pre = load ptr, ptr %.pr, align 8, !tbaa !11
  br label %.thread40

.thread40:                                        ; preds = %..thread40_crit_edge, %7
  %52 = phi ptr [ %.pre, %..thread40_crit_edge ], [ %8, %7 ]
  %53 = icmp eq ptr %52, %0
  br i1 %53, label %54, label %.thread

54:                                               ; preds = %.thread40
  store ptr null, ptr %5, align 8, !tbaa !3
  br label %.thread

.thread:                                          ; preds = %4, %54, %.thread40, %51
  %55 = tail call ptr @lv_ll_get_head(ptr noundef nonnull %2) #10
  %.not3743 = icmp eq ptr %55, null
  br i1 %.not3743, label %.loopexit, label %.lr.ph

.lr.ph:                                           ; preds = %.thread, %63
  %.044 = phi ptr [ %64, %63 ], [ %55, %.thread ]
  %56 = load ptr, ptr %.044, align 8, !tbaa !11
  %57 = icmp eq ptr %56, %0
  br i1 %57, label %58, label %63

58:                                               ; preds = %.lr.ph
  tail call void @lv_ll_remove(ptr noundef nonnull %2, ptr noundef nonnull %.044) #10
  tail call void @lv_free(ptr noundef nonnull %.044) #10
  %59 = getelementptr inbounds nuw i8, ptr %0, i64 16
  %60 = load ptr, ptr %59, align 8, !tbaa !14
  %.not38 = icmp eq ptr %60, null
  br i1 %.not38, label %.loopexit, label %61

61:                                               ; preds = %58
  %62 = getelementptr inbounds nuw i8, ptr %60, i64 8
  store ptr null, ptr %62, align 8, !tbaa !18
  br label %.loopexit

63:                                               ; preds = %.lr.ph
  %64 = tail call ptr @lv_ll_get_next(ptr noundef nonnull %2, ptr noundef nonnull %.044) #10
  %.not37 = icmp eq ptr %64, null
  br i1 %.not37, label %.loopexit, label %.lr.ph, !llvm.loop !37

.loopexit:                                        ; preds = %63, %.thread, %58, %61, %1
  ret void
}